target datalayout = "e-m:e-p270:32:32-p271:32:32-p272:64:64-i64:64-i128:128-f80:128-n8:16:32:64-S128"
target triple = "x86_64-pc-linux-gnu"

%"class.arrow_vendored::double_conversion::Bignum" = type { i16, i16, [128 x i32] }

; Function Attrs: mustprogress nounwind uwtable
define void @_ZN14arrow_vendored17double_conversion6Bignum5ClampEv(ptr noundef nonnull align 4 dereferenceable(516) %0) #0 align 2 {
  %2 = alloca ptr, align 8
  store ptr %0, ptr %2, align 8, !tbaa !3
  %3 = load ptr, ptr %2, align 8
  br label %4

4:                                                ; preds = %19, %1
  %5 = getelementptr inbounds nuw %"class.arrow_vendored::double_conversion::Bignum", ptr %3, i32 0, i32 0
  %6 = load i16, ptr %5, align 4, !tbaa !12
  %7 = sext i16 %6 to i32
  %8 = icmp sgt i32 %7, 0
  br i1 %8, label %9, label %17

9:                                                ; preds = %4
  %10 = getelementptr inbounds nuw %"class.arrow_vendored::double_conversion::Bignum", ptr %3, i32 0, i32 0
  %11 = load i16, ptr %10, align 4, !tbaa !12
  %12 = sext i16 %11 to i32
  %13 = sub nsw i32 %12, 1
  %14 = call noundef nonnull align 4 dereferenceable(4) ptr @_ZN14arrow_vendored17double_conversion6Bignum8RawBigitEi(ptr noundef nonnull align 4 dereferenceable(516) %3, i32 noundef %13)
  %15 = load i32, ptr %14, align 4, !tbaa !8
  %16 = icmp eq i32 %15, 0
  br label %17

17:                                               ; preds = %9, %4
  %18 = phi i1 [ false, %4 ], [ %16, %9 ]
  br i1 %18, label %19, label %23

19:                                               ; preds = %17
  %20 = getelementptr inbounds nuw %"class.arrow_vendored::double_conversion::Bignum", ptr %3, i32 0, i32 0
  %21 = load i16, ptr %20, align 4, !tbaa !12
  %22 = add i16 %21, -1
  store i16 %22, ptr %20, align 4, !tbaa !12
  br label %4, !llvm.loop !32

23:                                               ; preds = %17
  %24 = getelementptr inbounds nuw %"class.arrow_vendored::double_conversion::Bignum", ptr %3, i32 0, i32 0
  %25 = load i16, ptr %24, align 4, !tbaa !12
  %26 = sext i16 %25 to i32
  %27 = icmp eq i32 %26, 0
  br i1 %27, label %28, label %30

28:                                               ; preds = %23
  %29 = getelementptr inbounds nuw %"class.arrow_vendored::double_conversion::Bignum", ptr %3, i32 0, i32 1
  store i16 0, ptr %29, align 2, !tbaa !14
  br label %30

30:                                               ; preds = %28, %23
  ret void
}

; Function Attrs: mustprogress nounwind uwtable
define noundef nonnull align 4 dereferenceable(4) ptr @_ZN14arrow_vendored17double_conversion6Bignum8RawBigitEi(ptr noundef nonnull align 4 dereferenceable(516) %0, i32 noundef %1) #0 align 2 {
  %3 = alloca ptr, align 8
  %4 = alloca i32, align 4
  store ptr %0, ptr %3, align 8, !tbaa !3
  store i32 %1, ptr %4, align 4, !tbaa !8
  %5 = load ptr, ptr %3, align 8
  %6 = getelementptr inbounds nuw %"class.arrow_vendored::double_conversion::Bignum", ptr %5, i32 0, i32 2
  %7 = load i32, ptr %4, align 4, !tbaa !8
  %8 = sext i32 %7 to i64
  %9 = getelementptr inbounds [128 x i32], ptr %6, i64 0, i64 %8
  ret ptr %9
}

; Function Attrs: mustprogress nounwind uwtable
define noundef nonnull align 4 dereferenceable(4) ptr @_ZNK14arrow_vendored17double_conversion6Bignum8RawBigitEi(ptr noundef nonnull align 4 dereferenceable(516) %0, i32 noundef %1) #0 align 2 {
  %3 = alloca ptr, align 8
  %4 = alloca i32, align 4
  store ptr %0, ptr %3, align 8, !tbaa !3
  store i32 %1, ptr %4, align 4, !tbaa !8
  %5 = load ptr, ptr %3, align 8
  %6 = getelementptr inbounds nuw %"class.arrow_vendored::double_conversion::Bignum", ptr %5, i32 0, i32 2
  %7 = load i32, ptr %4, align 4, !tbaa !8
  %8 = sext i32 %7 to i64
  %9 = getelementptr inbounds [128 x i32], ptr %6, i64 0, i64 %8
  ret ptr %9
}

; Function Attrs: mustprogress uwtable
define void @_ZN14arrow_vendored17double_conversion6Bignum13SubtractTimesERKS1_i(ptr noundef nonnull align 4 dereferenceable(516) %0, ptr noundef nonnull align 4 dereferenceable(516) %1, i32 noundef %2) #1 align 2 {
  %4 = alloca ptr, align 8
  %5 = alloca ptr, align 8
  %6 = alloca i32, align 4
  %7 = alloca i32, align 4
  %8 = alloca i32, align 4
  %9 = alloca i32, align 4
  %10 = alloca i32, align 4
  %11 = alloca i64, align 8
  %12 = alloca i64, align 8
  %13 = alloca i32, align 4
  %14 = alloca i32, align 4
  %15 = alloca i32, align 4
  %16 = alloca i32, align 4
  store ptr %0, ptr %4, align 8, !tbaa !3
  store ptr %1, ptr %5, align 8, !tbaa !3
  store i32 %2, ptr %6, align 4, !tbaa !8
  %17 = load ptr, ptr %4, align 8
  %18 = load i32, ptr %6, align 4, !tbaa !8
  %19 = icmp slt i32 %18, 3
  br i1 %19, label %20, label %32

20:                                               ; preds = %3
  call void @llvm.lifetime.start.p0(i64 4, ptr %7) #6
  store i32 0, ptr %7, align 4, !tbaa !8
  br label %21

21:                                               ; preds = %28, %20
  %22 = load i32, ptr %7, align 4, !tbaa !8
  %23 = load i32, ptr %6, align 4, !tbaa !8
  %24 = icmp slt i32 %22, %23
  br i1 %24, label %26, label %25

25:                                               ; preds = %21
  call void @llvm.lifetime.end.p0(i64 4, ptr %7) #6
  br label %31

26:                                               ; preds = %21
  %27 = load ptr, ptr %5, align 8, !tbaa !3
  call void @_ZN14arrow_vendored17double_conversion6Bignum14SubtractBignumERKS1_(ptr noundef nonnull align 4 dereferenceable(516) %17, ptr noundef nonnull align 4 dereferenceable(516) %27)
  br label %28

28:                                               ; preds = %26
  %29 = load i32, ptr %7, align 4, !tbaa !8
  %30 = add nsw i32 %29, 1
  store i32 %30, ptr %7, align 4, !tbaa !8
  br label %21, !llvm.loop !65

31:                                               ; preds = %25
  br label %126

32:                                               ; preds = %3
  call void @llvm.lifetime.start.p0(i64 4, ptr %8) #6
  store i32 0, ptr %8, align 4, !tbaa !8
  call void @llvm.lifetime.start.p0(i64 4, ptr %9) #6
  %33 = load ptr, ptr %5, align 8, !tbaa !3
  %34 = getelementptr inbounds nuw %"class.arrow_vendored::double_conversion::Bignum", ptr %33, i32 0, i32 1
  %35 = load i16, ptr %34, align 2, !tbaa !14
  %36 = sext i16 %35 to i32
  %37 = getelementptr inbounds nuw %"class.arrow_vendored::double_conversion::Bignum", ptr %17, i32 0, i32 1
  %38 = load i16, ptr %37, align 2, !tbaa !14
  %39 = sext i16 %38 to i32
  %40 = sub nsw i32 %36, %39
  store i32 %40, ptr %9, align 4, !tbaa !8
  call void @llvm.lifetime.start.p0(i64 4, ptr %10) #6
  store i32 0, ptr %10, align 4, !tbaa !8
  br label %41

41:                                               ; preds = %85, %32
  %42 = load i32, ptr %10, align 4, !tbaa !8
  %43 = load ptr, ptr %5, align 8, !tbaa !3
  %44 = getelementptr inbounds nuw %"class.arrow_vendored::double_conversion::Bignum", ptr %43, i32 0, i32 0
  %45 = load i16, ptr %44, align 4, !tbaa !12
  %46 = sext i16 %45 to i32
  %47 = icmp slt i32 %42, %46
  br i1 %47, label %49, label %48

48:                                               ; preds = %41
  call void @llvm.lifetime.end.p0(i64 4, ptr %10) #6
  br label %88

49:                                               ; preds = %41
  call void @llvm.lifetime.start.p0(i64 8, ptr %11) #6
  %50 = load i32, ptr %6, align 4, !tbaa !8
  %51 = sext i32 %50 to i64
  %52 = load ptr, ptr %5, align 8, !tbaa !3
  %53 = load i32, ptr %10, align 4, !tbaa !8
  %54 = call noundef nonnull align 4 dereferenceable(4) ptr @_ZNK14arrow_vendored17double_conversion6Bignum8RawBigitEi(ptr noundef nonnull align 4 dereferenceable(516) %52, i32 noundef %53)
  %55 = load i32, ptr %54, align 4, !tbaa !8
  %56 = zext i32 %55 to i64
  %57 = mul i64 %51, %56
  store i64 %57, ptr %11, align 8, !tbaa !15
  call void @llvm.lifetime.start.p0(i64 8, ptr %12) #6
  %58 = load i32, ptr %8, align 4, !tbaa !8
  %59 = zext i32 %58 to i64
  %60 = load i64, ptr %11, align 8, !tbaa !15
  %61 = add i64 %59, %60
  store i64 %61, ptr %12, align 8, !tbaa !15
  call void @llvm.lifetime.start.p0(i64 4, ptr %13) #6
  %62 = load i32, ptr %10, align 4, !tbaa !8
  %63 = load i32, ptr %9, align 4, !tbaa !8
  %64 = add nsw i32 %62, %63
  %65 = call noundef nonnull align 4 dereferenceable(4) ptr @_ZN14arrow_vendored17double_conversion6Bignum8RawBigitEi(ptr noundef nonnull align 4 dereferenceable(516) %17, i32 noundef %64)
  %66 = load i32, ptr %65, align 4, !tbaa !8
  %67 = zext i32 %66 to i64
  %68 = load i64, ptr %12, align 8, !tbaa !15
  %69 = and i64 %68, 268435455
  %70 = sub i64 %67, %69
  %71 = trunc i64 %70 to i32
  store i32 %71, ptr %13, align 4, !tbaa !8
  %72 = load i32, ptr %13, align 4, !tbaa !8
  %73 = and i32 %72, 268435455
  %74 = load i32, ptr %10, align 4, !tbaa !8
  %75 = load i32, ptr %9, align 4, !tbaa !8
  %76 = add nsw i32 %74, %75
  %77 = call noundef nonnull align 4 dereferenceable(4) ptr @_ZN14arrow_vendored17double_conversion6Bignum8RawBigitEi(ptr noundef nonnull align 4 dereferenceable(516) %17, i32 noundef %76)
  store i32 %73, ptr %77, align 4, !tbaa !8
  %78 = load i32, ptr %13, align 4, !tbaa !8
  %79 = lshr i32 %78, 31
  %80 = zext i32 %79 to i64
  %81 = load i64, ptr %12, align 8, !tbaa !15
  %82 = lshr i64 %81, 28
  %83 = add i64 %80, %82
  %84 = trunc i64 %83 to i32
  store i32 %84, ptr %8, align 4, !tbaa !8
  call void @llvm.lifetime.end.p0(i64 4, ptr %13) #6
  call void @llvm.lifetime.end.p0(i64 8, ptr %12) #6
  call void @llvm.lifetime.end.p0(i64 8, ptr %11) #6
  br label %85

85:                                               ; preds = %49
  %86 = load i32, ptr %10, align 4, !tbaa !8
  %87 = add nsw i32 %86, 1
  store i32 %87, ptr %10, align 4, !tbaa !8
  br label %41, !llvm.loop !66

88:                                               ; preds = %48
  call void @llvm.lifetime.start.p0(i64 4, ptr %14) #6
  %89 = load ptr, ptr %5, align 8, !tbaa !3
  %90 = getelementptr inbounds nuw %"class.arrow_vendored::double_conversion::Bignum", ptr %89, i32 0, i32 0
  %91 = load i16, ptr %90, align 4, !tbaa !12
  %92 = sext i16 %91 to i32
  %93 = load i32, ptr %9, align 4, !tbaa !8
  %94 = add nsw i32 %92, %93
  store i32 %94, ptr %14, align 4, !tbaa !8
  br label %95

95:                                               ; preds = %118, %88
  %96 = load i32, ptr %14, align 4, !tbaa !8
  %97 = getelementptr inbounds nuw %"class.arrow_vendored::double_conversion::Bignum", ptr %17, i32 0, i32 0
  %98 = load i16, ptr %97, align 4, !tbaa !12
  %99 = sext i16 %98 to i32
  %100 = icmp slt i32 %96, %99
  br i1 %100, label %102, label %101

101:                                              ; preds = %95
  store i32 8, ptr %15, align 4
  br label %121

102:                                              ; preds = %95
  %103 = load i32, ptr %8, align 4, !tbaa !8
  %104 = icmp eq i32 %103, 0
  br i1 %104, label %105, label %106

105:                                              ; preds = %102
  store i32 1, ptr %15, align 4
  br label %121

106:                                              ; preds = %102
  call void @llvm.lifetime.start.p0(i64 4, ptr %16) #6
  %107 = load i32, ptr %14, align 4, !tbaa !8
  %108 = call noundef nonnull align 4 dereferenceable(4) ptr @_ZN14arrow_vendored17double_conversion6Bignum8RawBigitEi(ptr noundef nonnull align 4 dereferenceable(516) %17, i32 noundef %107)
  %109 = load i32, ptr %108, align 4, !tbaa !8
  %110 = load i32, ptr %8, align 4, !tbaa !8
  %111 = sub i32 %109, %110
  store i32 %111, ptr %16, align 4, !tbaa !8
  %112 = load i32, ptr %16, align 4, !tbaa !8
  %113 = and i32 %112, 268435455
  %114 = load i32, ptr %14, align 4, !tbaa !8
  %115 = call noundef nonnull align 4 dereferenceable(4) ptr @_ZN14arrow_vendored17double_conversion6Bignum8RawBigitEi(ptr noundef nonnull align 4 dereferenceable(516) %17, i32 noundef %114)
  store i32 %113, ptr %115, align 4, !tbaa !8
  %116 = load i32, ptr %16, align 4, !tbaa !8
  %117 = lshr i32 %116, 31
  store i32 %117, ptr %8, align 4, !tbaa !8
  call void @llvm.lifetime.end.p0(i64 4, ptr %16) #6
  br label %118

118:                                              ; preds = %106
  %119 = load i32, ptr %14, align 4, !tbaa !8
  %120 = add nsw i32 %119, 1
  store i32 %120, ptr %14, align 4, !tbaa !8
  br label %95, !llvm.loop !67

121:                                              ; preds = %105, %101
  call void @llvm.lifetime.end.p0(i64 4, ptr %14) #6
  %122 = load i32, ptr %15, align 4
  switch i32 %122, label %124 [
    i32 8, label %123
  ]

123:                                              ; preds = %121
  call void @_ZN14arrow_vendored17double_conversion6Bignum5ClampEv(ptr noundef nonnull align 4 dereferenceable(516) %17)
  store i32 0, ptr %15, align 4
  br label %124

124:                                              ; preds = %123, %121
  call void @llvm.lifetime.end.p0(i64 4, ptr %9) #6
  call void @llvm.lifetime.end.p0(i64 4, ptr %8) #6
  %125 = load i32, ptr %15, align 4
  switch i32 %125, label %127 [
    i32 0, label %126
    i32 1, label %126
  ]

126:                                              ; preds = %31, %124, %124
  ret void

127:                                              ; preds = %124
  unreachable
}